target datalayout = "e-m:e-p270:32:32-p271:32:32-p272:64:64-i64:64-i128:128-f80:128-n8:16:32:64-S128"
target triple = "x86_64-pc-linux-gnu"

%struct.MtrNode = type { i32, i32, i32, i32, ptr, ptr, ptr, ptr }

; Function Attrs: nounwind uwtable
define void @Mtr_MakeLastChild(ptr noundef %0, ptr noundef %1) #0 {
  %3 = alloca ptr, align 8
  %4 = alloca ptr, align 8
  %5 = alloca ptr, align 8
  store ptr %0, ptr %3, align 8, !tbaa !3
  store ptr %1, ptr %4, align 8, !tbaa !3
  call void @llvm.lifetime.start.p0(i64 8, ptr %5) #4
  %6 = load ptr, ptr %4, align 8, !tbaa !3
  %7 = getelementptr inbounds nuw %struct.MtrNode, ptr %6, i32 0, i32 7
  store ptr null, ptr %7, align 8, !tbaa !8
  %8 = load ptr, ptr %3, align 8, !tbaa !3
  %9 = getelementptr inbounds nuw %struct.MtrNode, ptr %8, i32 0, i32 5
  %10 = load ptr, ptr %9, align 8, !tbaa !12
  %11 = icmp eq ptr %10, null
  br i1 %11, label %12, label %18

12:                                               ; preds = %2
  %13 = load ptr, ptr %4, align 8, !tbaa !3
  %14 = load ptr, ptr %3, align 8, !tbaa !3
  %15 = getelementptr inbounds nuw %struct.MtrNode, ptr %14, i32 0, i32 5
  store ptr %13, ptr %15, align 8, !tbaa !12
  %16 = load ptr, ptr %4, align 8, !tbaa !3
  %17 = getelementptr inbounds nuw %struct.MtrNode, ptr %16, i32 0, i32 6
  store ptr null, ptr %17, align 8, !tbaa !11
  br label %39

18:                                               ; preds = %2
  %19 = load ptr, ptr %3, align 8, !tbaa !3
  %20 = getelementptr inbounds nuw %struct.MtrNode, ptr %19, i32 0, i32 5
  %21 = load ptr, ptr %20, align 8, !tbaa !12
  store ptr %21, ptr %5, align 8, !tbaa !3
  br label %22

22:                                               ; preds = %28, %18
  %23 = load ptr, ptr %5, align 8, !tbaa !3
  %24 = getelementptr inbounds nuw %struct.MtrNode, ptr %23, i32 0, i32 7
  %25 = load ptr, ptr %24, align 8, !tbaa !8
  %26 = icmp ne ptr %25, null
  br i1 %26, label %27, label %32

27:                                               ; preds = %22
  br label %28

28:                                               ; preds = %27
  %29 = load ptr, ptr %5, align 8, !tbaa !3
  %30 = getelementptr inbounds nuw %struct.MtrNode, ptr %29, i32 0, i32 7
  %31 = load ptr, ptr %30, align 8, !tbaa !8
  store ptr %31, ptr %5, align 8, !tbaa !3
  br label %22, !llvm.loop !21

32:                                               ; preds = %22
  %33 = load ptr, ptr %4, align 8, !tbaa !3
  %34 = load ptr, ptr %5, align 8, !tbaa !3
  %35 = getelementptr inbounds nuw %struct.MtrNode, ptr %34, i32 0, i32 7
  store ptr %33, ptr %35, align 8, !tbaa !8
  %36 = load ptr, ptr %5, align 8, !tbaa !3
  %37 = load ptr, ptr %4, align 8, !tbaa !3
  %38 = getelementptr inbounds nuw %struct.MtrNode, ptr %37, i32 0, i32 6
  store ptr %36, ptr %38, align 8, !tbaa !11
  br label %39

39:                                               ; preds = %32, %12
  %40 = load ptr, ptr %3, align 8, !tbaa !3
  %41 = load ptr, ptr %4, align 8, !tbaa !3
  %42 = getelementptr inbounds nuw %struct.MtrNode, ptr %41, i32 0, i32 4
  store ptr %40, ptr %42, align 8, !tbaa !13
  call void @llvm.lifetime.end.p0(i64 8, ptr %5) #4
  ret void
}