; Function Attrs: nofree norecurse nosync nounwind memory(readwrite, inaccessiblemem: none) uwtable
define void @Mtr_MakeLastChild(ptr noundef %0, ptr noundef initializes((40, 48)) %1) local_unnamed_addr #7 {
  %3 = getelementptr inbounds nuw i8, ptr %1, i64 40
  store ptr null, ptr %3, align 8, !tbaa !11
  %4 = getelementptr inbounds nuw i8, ptr %0, i64 24
  %5 = load ptr, ptr %4, align 8, !tbaa !10
  %6 = icmp eq ptr %5, null
  br i1 %6, label %7, label %.preheader

7:                                                ; preds = %2
  store ptr %1, ptr %4, align 8, !tbaa !10
  br label %12

.preheader:                                       ; preds = %2, %.preheader
  %.0 = phi ptr [ %9, %.preheader ], [ %5, %2 ]
  %8 = getelementptr inbounds nuw i8, ptr %.0, i64 40
  %9 = load ptr, ptr %8, align 8, !tbaa !11
  %.not = icmp eq ptr %9, null
  br i1 %.not, label %10, label %.preheader, !llvm.loop !19

10:                                               ; preds = %.preheader
  %11 = getelementptr inbounds nuw i8, ptr %.0, i64 40
  store ptr %1, ptr %11, align 8, !tbaa !11
  br label %12

12:                                               ; preds = %10, %7
  %.0.lcssa17.sink = phi ptr [ %.0, %10 ], [ null, %7 ]
  %13 = getelementptr inbounds nuw i8, ptr %1, i64 32
  store ptr %.0.lcssa17.sink, ptr %13, align 8, !tbaa !15
  %14 = getelementptr inbounds nuw i8, ptr %1, i64 16
  store ptr %0, ptr %14, align 8, !tbaa !16
  ret void
}